target datalayout = "e-m:e-p270:32:32-p271:32:32-p272:64:64-i64:64-f80:128-n8:16:32:64-S128"
target triple = "x86_64-pc-linux-gnu"

@.str = private unnamed_addr constant [3 x i8] c"No\00", align 1
@.str.1 = private unnamed_addr constant [3 x i8] c"%d\00", align 1

; Function Attrs: noinline nounwind uwtable
define dso_local void @main() #0 {
  %1 = alloca [1000 x i8], align 16
  %2 = alloca [1000 x i8], align 16
  %3 = alloca [1000 x i32], align 16
  %4 = alloca i32, align 4
  %5 = alloca i32, align 4
  %6 = alloca i32, align 4
  %7 = alloca i32, align 4
  %8 = alloca i32, align 4
  %9 = alloca i32, align 4
  %10 = alloca i32, align 4
  %11 = alloca i32, align 4
  %12 = bitcast [1000 x i32]* %3 to i8*
  call void @llvm.memset.p0i8.i64(i8* align 16 %12, i8 0, i64 4000, i1 false)
  %13 = getelementptr inbounds [1000 x i8], [1000 x i8]* %1, i64 0, i64 0
  %14 = call i32 (i8*, ...) bitcast (i32 (...)* @gets to i32 (i8*, ...)*)(i8* %13)
  %15 = getelementptr inbounds [1000 x i8], [1000 x i8]* %2, i64 0, i64 0
  store i8 -1, i8* %15, align 16
  %16 = getelementptr inbounds [1000 x i8], [1000 x i8]* %1, i64 0, i64 0
  %17 = call i64 @strlen(i8* %16) #4
  %18 = trunc i64 %17 to i32
  store i32 %18, i32* %5, align 4
  store i32 1, i32* %4, align 4
  store i32 0, i32* %6, align 4
  br label %19

19:                                               ; preds = %39, %0
  %20 = load i32, i32* %6, align 4
  %21 = load i32, i32* %5, align 4
  %22 = icmp slt i32 %20, %21
  br i1 %22, label %23, label %42

23:                                               ; preds = %19
  %24 = load i32, i32* %6, align 4
  %25 = sext i32 %24 to i64
  %26 = getelementptr inbounds [1000 x i8], [1000 x i8]* %1, i64 0, i64 %25
  %27 = load i8, i8* %26, align 1
  %28 = sext i8 %27 to i32
  %29 = icmp eq i32 %28, 44
  br i1 %29, label %30, label %38

30:                                               ; preds = %23
  %31 = load i32, i32* %6, align 4
  %32 = trunc i32 %31 to i8
  %33 = load i32, i32* %4, align 4
  %34 = sext i32 %33 to i64
  %35 = getelementptr inbounds [1000 x i8], [1000 x i8]* %2, i64 0, i64 %34
  store i8 %32, i8* %35, align 1
  %36 = load i32, i32* %4, align 4
  %37 = add nsw i32 %36, 1
  store i32 %37, i32* %4, align 4
  br label %38

38:                                               ; preds = %30, %23
  br label %39

39:                                               ; preds = %38
  %40 = load i32, i32* %6, align 4
  %41 = add nsw i32 %40, 1
  store i32 %41, i32* %6, align 4
  br label %19

42:                                               ; preds = %19
  %43 = load i32, i32* %5, align 4
  %44 = trunc i32 %43 to i8
  %45 = load i32, i32* %4, align 4
  %46 = sext i32 %45 to i64
  %47 = getelementptr inbounds [1000 x i8], [1000 x i8]* %2, i64 0, i64 %46
  store i8 %44, i8* %47, align 1
  %48 = load i32, i32* %4, align 4
  %49 = icmp eq i32 %48, 1
  br i1 %49, label %50, label %52

50:                                               ; preds = %42
  %51 = call i32 (i8*, ...) @printf(i8* getelementptr inbounds ([3 x i8], [3 x i8]* @.str, i64 0, i64 0))
  br label %174

52:                                               ; preds = %42
  store i32 0, i32* %6, align 4
  br label %53

53:                                               ; preds = %94, %52
  %54 = load i32, i32* %6, align 4
  %55 = load i32, i32* %4, align 4
  %56 = icmp slt i32 %54, %55
  br i1 %56, label %57, label %97

57:                                               ; preds = %53
  %58 = load i32, i32* %6, align 4
  %59 = sext i32 %58 to i64
  %60 = getelementptr inbounds [1000 x i8], [1000 x i8]* %2, i64 0, i64 %59
  %61 = load i8, i8* %60, align 1
  %62 = sext i8 %61 to i32
  %63 = add nsw i32 %62, 1
  store i32 %63, i32* %8, align 4
  br label %64

64:                                               ; preds = %90, %57
  %65 = load i32, i32* %8, align 4
  %66 = load i32, i32* %6, align 4
  %67 = add nsw i32 %66, 1
  %68 = sext i32 %67 to i64
  %69 = getelementptr inbounds [1000 x i8], [1000 x i8]* %2, i64 0, i64 %68
  %70 = load i8, i8* %69, align 1
  %71 = sext i8 %70 to i32
  %72 = icmp slt i32 %65, %71
  br i1 %72, label %73, label %93

73:                                               ; preds = %64
  %74 = load i32, i32* %8, align 4
  %75 = sext i32 %74 to i64
  %76 = getelementptr inbounds [1000 x i8], [1000 x i8]* %1, i64 0, i64 %75
  %77 = load i8, i8* %76, align 1
  %78 = sext i8 %77 to i32
  %79 = sub nsw i32 %78, 48
  store i32 %79, i32* %9, align 4
  %80 = load i32, i32* %6, align 4
  %81 = sext i32 %80 to i64
  %82 = getelementptr inbounds [1000 x i32], [1000 x i32]* %3, i64 0, i64 %81
  %83 = load i32, i32* %82, align 4
  %84 = mul nsw i32 %83, 10
  %85 = load i32, i32* %9, align 4
  %86 = add nsw i32 %84, %85
  %87 = load i32, i32* %6, align 4
  %88 = sext i32 %87 to i64
  %89 = getelementptr inbounds [1000 x i32], [1000 x i32]* %3, i64 0, i64 %88
  store i32 %86, i32* %89, align 4
  br label %90

90:                                               ; preds = %73
  %91 = load i32, i32* %8, align 4
  %92 = add nsw i32 %91, 1
  store i32 %92, i32* %8, align 4
  br label %64

93:                                               ; preds = %64
  br label %94

94:                                               ; preds = %93
  %95 = load i32, i32* %6, align 4
  %96 = add nsw i32 %95, 1
  store i32 %96, i32* %6, align 4
  br label %53

97:                                               ; preds = %53
  %98 = getelementptr inbounds [1000 x i32], [1000 x i32]* %3, i64 0, i64 0
  %99 = load i32, i32* %98, align 16
  store i32 %99, i32* %10, align 4
  store i32 0, i32* %6, align 4
  br label %100

100:                                              ; preds = %117, %97
  %101 = load i32, i32* %6, align 4
  %102 = load i32, i32* %4, align 4
  %103 = icmp slt i32 %101, %102
  br i1 %103, label %104, label %120

104:                                              ; preds = %100
  %105 = load i32, i32* %6, align 4
  %106 = sext i32 %105 to i64
  %107 = getelementptr inbounds [1000 x i32], [1000 x i32]* %3, i64 0, i64 %106
  %108 = load i32, i32* %107, align 4
  %109 = load i32, i32* %10, align 4
  %110 = icmp sgt i32 %108, %109
  br i1 %110, label %111, label %116

111:                                              ; preds = %104
  %112 = load i32, i32* %6, align 4
  %113 = sext i32 %112 to i64
  %114 = getelementptr inbounds [1000 x i32], [1000 x i32]* %3, i64 0, i64 %113
  %115 = load i32, i32* %114, align 4
  store i32 %115, i32* %10, align 4
  br label %116

116:                                              ; preds = %111, %104
  br label %117

117:                                              ; preds = %116
  %118 = load i32, i32* %6, align 4
  %119 = add nsw i32 %118, 1
  store i32 %119, i32* %6, align 4
  br label %100

120:                                              ; preds = %100
  store i32 0, i32* %6, align 4
  br label %121

121:                                              ; preds = %134, %120
  %122 = load i32, i32* %6, align 4
  %123 = load i32, i32* %4, align 4
  %124 = icmp slt i32 %122, %123
  br i1 %124, label %125, label %137

125:                                              ; preds = %121
  %126 = load i32, i32* %6, align 4
  %127 = sext i32 %126 to i64
  %128 = getelementptr inbounds [1000 x i32], [1000 x i32]* %3, i64 0, i64 %127
  %129 = load i32, i32* %128, align 4
  %130 = load i32, i32* %10, align 4
  %131 = icmp ne i32 %129, %130
  br i1 %131, label %132, label %133

132:                                              ; preds = %125
  store i32 1, i32* %7, align 4
  br label %137

133:                                              ; preds = %125
  br label %134

134:                                              ; preds = %133
  %135 = load i32, i32* %6, align 4
  %136 = add nsw i32 %135, 1
  store i32 %136, i32* %6, align 4
  br label %121

137:                                              ; preds = %132, %121
  store i32 -10000, i32* %11, align 4
  store i32 0, i32* %6, align 4
  br label %138

138:                                              ; preds = %162, %137
  %139 = load i32, i32* %6, align 4
  %140 = load i32, i32* %4, align 4
  %141 = icmp slt i32 %139, %140
  br i1 %141, label %142, label %165

142:                                              ; preds = %138
  %143 = load i32, i32* %6, align 4
  %144 = sext i32 %143 to i64
  %145 = getelementptr inbounds [1000 x i32], [1000 x i32]* %3, i64 0, i64 %144
  %146 = load i32, i32* %145, align 4
  %147 = load i32, i32* %11, align 4
  %148 = icmp sgt i32 %146, %147
  br i1 %148, label %149, label %161

149:                                              ; preds = %142
  %150 = load i32, i32* %6, align 4
  %151 = sext i32 %150 to i64
  %152 = getelementptr inbounds [1000 x i32], [1000 x i32]* %3, i64 0, i64 %151
  %153 = load i32, i32* %152, align 4
  %154 = load i32, i32* %10, align 4
  %155 = icmp ne i32 %153, %154
  br i1 %155, label %156, label %161

156:                                              ; preds = %149
  %157 = load i32, i32* %6, align 4
  %158 = sext i32 %157 to i64
  %159 = getelementptr inbounds [1000 x i32], [1000 x i32]* %3, i64 0, i64 %158
  %160 = load i32, i32* %159, align 4
  store i32 %160, i32* %11, align 4
  br label %161

161:                                              ; preds = %156, %149, %142
  br label %162

162:                                              ; preds = %161
  %163 = load i32, i32* %6, align 4
  %164 = add nsw i32 %163, 1
  store i32 %164, i32* %6, align 4
  br label %138

165:                                              ; preds = %138
  %166 = load i32, i32* %11, align 4
  %167 = icmp eq i32 %166, -10000
  br i1 %167, label %168, label %170

168:                                              ; preds = %165
  %169 = call i32 (i8*, ...) @printf(i8* getelementptr inbounds ([3 x i8], [3 x i8]* @.str, i64 0, i64 0))
  br label %173

170:                                              ; preds = %165
  %171 = load i32, i32* %11, align 4
  %172 = call i32 (i8*, ...) @printf(i8* getelementptr inbounds ([3 x i8], [3 x i8]* @.str.1, i64 0, i64 0), i32 %171)
  br label %173

173:                                              ; preds = %170, %168
  br label %174

174:                                              ; preds = %173, %50
  ret void
}